target datalayout = "e-m:e-p270:32:32-p271:32:32-p272:64:64-i64:64-i128:128-f80:128-n8:16:32:64-S128"
target triple = "x86_64-pc-linux-gnu"

%class.BigInteger = type { i32, %class.BigUnsigned }
%class.BigUnsigned = type { %class.NumberlikeArray }
%class.NumberlikeArray = type { i32, i32, ptr }

; Function Attrs: mustprogress nounwind uwtable
define internal noundef i64 @_ZN12_GLOBAL__N_15magOfIijEEmT_(i32 noundef %0) #1 {
  %2 = alloca i32, align 4
  store i32 %0, ptr %2, align 4, !tbaa !21
  %3 = load i32, ptr %2, align 4, !tbaa !21
  %4 = icmp slt i32 %3, 0
  br i1 %4, label %5, label %8

5:                                                ; preds = %1
  %6 = load i32, ptr %2, align 4, !tbaa !21
  %7 = sub nsw i32 0, %6
  br label %10

8:                                                ; preds = %1
  %9 = load i32, ptr %2, align 4, !tbaa !21
  br label %10

10:                                               ; preds = %8, %5
  %11 = phi i32 [ %7, %5 ], [ %9, %8 ]
  %12 = zext i32 %11 to i64
  ret i64 %12
}

; Function Attrs: mustprogress nounwind uwtable
define internal noundef i32 @_ZN12_GLOBAL__N_16signOfIiEEN10BigInteger4SignET_(i32 noundef %0) #1 {
  %2 = alloca i32, align 4
  store i32 %0, ptr %2, align 4, !tbaa !21
  %3 = load i32, ptr %2, align 4, !tbaa !21
  %4 = icmp eq i32 %3, 0
  br i1 %4, label %5, label %6

5:                                                ; preds = %1
  br label %10

6:                                                ; preds = %1
  %7 = load i32, ptr %2, align 4, !tbaa !21
  %8 = icmp sgt i32 %7, 0
  %9 = select i1 %8, i32 1, i32 -1
  br label %10

10:                                               ; preds = %6, %5
  %11 = phi i32 [ 0, %5 ], [ %9, %6 ]
  ret i32 %11
}

; Function Attrs: mustprogress uwtable
define void @_ZN10BigIntegerC2Ei(ptr noundef nonnull align 8 dereferenceable(24) %0, i32 noundef %1) unnamed_addr #0 align 2 {
  %3 = alloca ptr, align 8
  %4 = alloca i32, align 4
  store ptr %0, ptr %3, align 8, !tbaa !6
  store i32 %1, ptr %4, align 4, !tbaa !21
  %5 = load ptr, ptr %3, align 8
  %6 = getelementptr inbounds nuw %class.BigInteger, ptr %5, i32 0, i32 0
  %7 = load i32, ptr %4, align 4, !tbaa !21
  %8 = call noundef i32 @_ZN12_GLOBAL__N_16signOfIiEEN10BigInteger4SignET_(i32 noundef %7)
  store i32 %8, ptr %6, align 8, !tbaa !11
  %9 = getelementptr inbounds nuw %class.BigInteger, ptr %5, i32 0, i32 1
  %10 = load i32, ptr %4, align 4, !tbaa !21
  %11 = call noundef i64 @_ZN12_GLOBAL__N_15magOfIijEEmT_(i32 noundef %10)
  call void @_ZN11BigUnsignedC1Em(ptr noundef nonnull align 8 dereferenceable(16) %9, i64 noundef %11)
  ret void
}